	.file	"max4.cpp"
	.text
	.section	.rodata
	.type	_ZStL19piecewise_construct, @object
	.size	_ZStL19piecewise_construct, 1
_ZStL19piecewise_construct:
	.zero	1
	.local	_ZStL8__ioinit
	.comm	_ZStL8__ioinit,1,1
.LC2:
	.string	"two"
.LC3:
	.string	"one"
	.text
	.globl	main
	.type	main, @function
main:
.LFB1522:
	.cfi_startproc
	endbr64
	pushq	%rbp
	.cfi_def_cfa_offset 16
	.cfi_offset 6, -16
	movq	%rsp, %rbp
	.cfi_def_cfa_register 6
	movl	$2, %esi
	movl	$1, %edi
	call	_Z6my_maxIiET_S0_S0_
	movl	%eax, %esi
	leaq	_ZSt4cout(%rip), %rdi
	call	_ZNSolsEi@PLT
	movq	%rax, %rdx
	movq	_ZSt4endlIcSt11char_traitsIcEERSt13basic_ostreamIT_T0_ES6_@GOTPCREL(%rip), %rax
	movq	%rax, %rsi
	movq	%rdx, %rdi
	call	_ZNSolsEPFRSoS_E@PLT
	movsd	.LC0(%rip), %xmm0
	movq	.LC1(%rip), %rax
	movapd	%xmm0, %xmm1
	movq	%rax, %xmm0
	call	_Z6my_maxIdET_S0_S0_
	leaq	_ZSt4cout(%rip), %rdi
	call	_ZNSolsEd@PLT
	movq	%rax, %rdx
	movq	_ZSt4endlIcSt11char_traitsIcEERSt13basic_ostreamIT_T0_ES6_@GOTPCREL(%rip), %rax
	movq	%rax, %rsi
	movq	%rdx, %rdi
	call	_ZNSolsEPFRSoS_E@PLT
	leaq	.LC2(%rip), %rsi
	leaq	.LC3(%rip), %rdi
	call	_Z6my_maxIPKcET_S2_S2_
	movq	%rax, %rsi
	leaq	_ZSt4cout(%rip), %rdi
	call	_ZStlsISt11char_traitsIcEERSt13basic_ostreamIcT_ES5_PKc@PLT
	movq	%rax, %rdx
	movq	_ZSt4endlIcSt11char_traitsIcEERSt13basic_ostreamIT_T0_ES6_@GOTPCREL(%rip), %rax
	movq	%rax, %rsi
	movq	%rdx, %rdi
	call	_ZNSolsEPFRSoS_E@PLT
	movl	$0, %eax
	popq	%rbp
	.cfi_def_cfa 7, 8
	ret
	.cfi_endproc
.LFE1522:
	.size	main, .-main
	.section	.text._Z6my_maxIiET_S0_S0_,"axG",@progbits,_Z6my_maxIiET_S0_S0_,comdat
	.weak	_Z6my_maxIiET_S0_S0_
	.type	_Z6my_maxIiET_S0_S0_, @function
_Z6my_maxIiET_S0_S0_:
.LFB1760:
	.cfi_startproc
	endbr64
	pushq	%rbp
	.cfi_def_cfa_offset 16
	.cfi_offset 6, -16
	movq	%rsp, %rbp
	.cfi_def_cfa_register 6
	movl	%edi, -4(%rbp)
	movl	%esi, -8(%rbp)
	movl	-4(%rbp), %eax
	cmpl	-8(%rbp), %eax
	jle	.L4
	movl	-4(%rbp), %eax
	jmp	.L5
.L4:
	movl	-8(%rbp), %eax
.L5:
	popq	%rbp
	.cfi_def_cfa 7, 8
	ret
	.cfi_endproc
.LFE1760:
	.size	_Z6my_maxIiET_S0_S0_, .-_Z6my_maxIiET_S0_S0_
	.section	.text._Z6my_maxIdET_S0_S0_,"axG",@progbits,_Z6my_maxIdET_S0_S0_,comdat
	.weak	_Z6my_maxIdET_S0_S0_
	.type	_Z6my_maxIdET_S0_S0_, @function
_Z6my_maxIdET_S0_S0_:
.LFB1763:
	.cfi_startproc
	endbr64
	pushq	%rbp
	.cfi_def_cfa_offset 16
	.cfi_offset 6, -16
	movq	%rsp, %rbp
	.cfi_def_cfa_register 6
	movsd	%xmm0, -8(%rbp)
	movsd	%xmm1, -16(%rbp)
	movsd	-8(%rbp), %xmm0
	comisd	-16(%rbp), %xmm0
	jbe	.L11
	movsd	-8(%rbp), %xmm0
	jmp	.L9
.L11:
	movsd	-16(%rbp), %xmm0
.L9:
	popq	%rbp
	.cfi_def_cfa 7, 8
	ret
	.cfi_endproc
.LFE1763:
	.size	_Z6my_maxIdET_S0_S0_, .-_Z6my_maxIdET_S0_S0_
	.section	.text._Z6my_maxIPKcET_S2_S2_,"axG",@progbits,_Z6my_maxIPKcET_S2_S2_,comdat
	.weak	_Z6my_maxIPKcET_S2_S2_
	.type	_Z6my_maxIPKcET_S2_S2_, @function
_Z6my_maxIPKcET_S2_S2_:
.LFB1765:
	.cfi_startproc
	endbr64
	pushq	%rbp
	.cfi_def_cfa_offset 16
	.cfi_offset 6, -16
	movq	%rsp, %rbp
	.cfi_def_cfa_register 6
	movq	%rdi, -8(%rbp)
	movq	%rsi, -16(%rbp)
	movq	-8(%rbp), %rax
	cmpq	-16(%rbp), %rax
	jbe	.L13
	movq	-8(%rbp), %rax
	jmp	.L14
.L13:
	movq	-16(%rbp), %rax
.L14:
	popq	%rbp
	.cfi_def_cfa 7, 8
	ret
	.cfi_endproc
.LFE1765:
	.size	_Z6my_maxIPKcET_S2_S2_, .-_Z6my_maxIPKcET_S2_S2_
	.text
	.type	_Z41__static_initialization_and_destruction_0ii, @function
_Z41__static_initialization_and_destruction_0ii:
.LFB2016:
	.cfi_startproc
	endbr64
	pushq	%rbp
	.cfi_def_cfa_offset 16
	.cfi_offset 6, -16
	movq	%rsp, %rbp
	.cfi_def_cfa_register 6
	subq	$16, %rsp
	movl	%edi, -4(%rbp)
	movl	%esi, -8(%rbp)
	cmpl	$1, -4(%rbp)
	jne	.L17
	cmpl	$65535, -8(%rbp)
	jne	.L17
	leaq	_ZStL8__ioinit(%rip), %rdi
	call	_ZNSt8ios_base4InitC1Ev@PLT
	leaq	__dso_handle(%rip), %rdx
	leaq	_ZStL8__ioinit(%rip), %rsi
	movq	_ZNSt8ios_base4InitD1Ev@GOTPCREL(%rip), %rax
	movq	%rax, %rdi
	call	__cxa_atexit@PLT
.L17:
	nop
	leave
	.cfi_def_cfa 7, 8
	ret
	.cfi_endproc
.LFE2016:
	.size	_Z41__static_initialization_and_destruction_0ii, .-_Z41__static_initialization_and_destruction_0ii
	.type	_GLOBAL__sub_I_main, @function
_GLOBAL__sub_I_main:
.LFB2017:
	.cfi_startproc
	endbr64
	pushq	%rbp
	.cfi_def_cfa_offset 16
	.cfi_offset 6, -16
	movq	%rsp, %rbp
	.cfi_def_cfa_register 6
	movl	$65535, %esi
	movl	$1, %edi
	call	_Z41__static_initialization_and_destruction_0ii
	popq	%rbp
	.cfi_def_cfa 7, 8
	ret
	.cfi_endproc
.LFE2017:
	.size	_GLOBAL__sub_I_main, .-_GLOBAL__sub_I_main
	.section	.init_array,"aw"
	.align 8
	.quad	_GLOBAL__sub_I_main
	.section	.rodata
	.align 8
.LC0:
	.long	1717986918
	.long	1076192870
	.align 8
.LC1:
	.long	0
	.long	1073217536
	.hidden	__dso_handle
	.ident	"GCC: (Ubuntu 9.4.0-1ubuntu1~20.04.2) 9.4.0"
	.section	.note.GNU-stack,"",@progbits
	.section	.note.gnu.property,"a"
	.align 8
	.long	 1f - 0f
	.long	 4f - 1f
	.long	 5
0:
	.string	 "GNU"
1:
	.align 8
	.long	 0xc0000002
	.long	 3f - 2f
2:
	.long	 0x3
3:
	.align 8
4:
